; Listing generated by Microsoft (R) Optimizing Compiler Version 15.00.30729.01 

	TITLE	f:\Visual Studio Projects\test-code-backup\trunk\TEST_DIR\test_mapfile\test\test.cpp
	.686P
	.XMM
	include listing.inc
	.model	flat

INCLUDELIB MSVCRTD
INCLUDELIB OLDNAMES

PUBLIC	?errorFun@@YAXPAH@Z				; errorFun
EXTRN	__RTC_Shutdown:PROC
EXTRN	__RTC_InitBase:PROC
;	COMDAT rtc$TMZ
; File f:\visual studio projects\test-code-backup\trunk\test_dir\test_mapfile\test\test.cpp
rtc$TMZ	SEGMENT
__RTC_Shutdown.rtc$TMZ DD FLAT:__RTC_Shutdown
rtc$TMZ	ENDS
;	COMDAT rtc$IMZ
rtc$IMZ	SEGMENT
__RTC_InitBase.rtc$IMZ DD FLAT:__RTC_InitBase
; Function compile flags: /Odtp /RTCsu /ZI
rtc$IMZ	ENDS
;	COMDAT ?errorFun@@YAXPAH@Z
_TEXT	SEGMENT
_p$ = 8							; size = 4
?errorFun@@YAXPAH@Z PROC				; errorFun, COMDAT

; 16   : {

  00000	55		 push	 ebp
  00001	8b ec		 mov	 ebp, esp
  00003	81 ec c0 00 00
	00		 sub	 esp, 192		; 000000c0H
  00009	53		 push	 ebx
  0000a	56		 push	 esi
  0000b	57		 push	 edi
  0000c	8d bd 40 ff ff
	ff		 lea	 edi, DWORD PTR [ebp-192]
  00012	b9 30 00 00 00	 mov	 ecx, 48			; 00000030H
  00017	b8 cc cc cc cc	 mov	 eax, -858993460		; ccccccccH
  0001c	f3 ab		 rep stosd

; 17   : 	*p=1;

  0001e	8b 45 08	 mov	 eax, DWORD PTR _p$[ebp]
  00021	c7 00 01 00 00
	00		 mov	 DWORD PTR [eax], 1

; 18   : }

  00027	5f		 pop	 edi
  00028	5e		 pop	 esi
  00029	5b		 pop	 ebx
  0002a	8b e5		 mov	 esp, ebp
  0002c	5d		 pop	 ebp
  0002d	c3		 ret	 0
?errorFun@@YAXPAH@Z ENDP				; errorFun
_TEXT	ENDS
PUBLIC	_wmain
EXTRN	__RTC_CheckEsp:PROC
; Function compile flags: /Odtp /RTCsu /ZI
;	COMDAT _wmain
_TEXT	SEGMENT
_p$ = -8						; size = 4
_argc$ = 8						; size = 4
_argv$ = 12						; size = 4
_wmain	PROC						; COMDAT

; 21   : {

  00000	55		 push	 ebp
  00001	8b ec		 mov	 ebp, esp
  00003	81 ec cc 00 00
	00		 sub	 esp, 204		; 000000ccH
  00009	53		 push	 ebx
  0000a	56		 push	 esi
  0000b	57		 push	 edi
  0000c	8d bd 34 ff ff
	ff		 lea	 edi, DWORD PTR [ebp-204]
  00012	b9 33 00 00 00	 mov	 ecx, 51			; 00000033H
  00017	b8 cc cc cc cc	 mov	 eax, -858993460		; ccccccccH
  0001c	f3 ab		 rep stosd

; 22   : 
; 23   : 	int * p=NULL;

  0001e	c7 45 f8 00 00
	00 00		 mov	 DWORD PTR _p$[ebp], 0

; 24   : 	errorFun(p);

  00025	8b 45 f8	 mov	 eax, DWORD PTR _p$[ebp]
  00028	50		 push	 eax
  00029	e8 00 00 00 00	 call	 ?errorFun@@YAXPAH@Z	; errorFun
  0002e	83 c4 04	 add	 esp, 4

; 25   : 	return 0;

  00031	33 c0		 xor	 eax, eax

; 26   : }

  00033	5f		 pop	 edi
  00034	5e		 pop	 esi
  00035	5b		 pop	 ebx
  00036	81 c4 cc 00 00
	00		 add	 esp, 204		; 000000ccH
  0003c	3b ec		 cmp	 ebp, esp
  0003e	e8 00 00 00 00	 call	 __RTC_CheckEsp
  00043	8b e5		 mov	 esp, ebp
  00045	5d		 pop	 ebp
  00046	c3		 ret	 0
_wmain	ENDP
_TEXT	ENDS
END
